; Function Attrs: nounwind sspstrong uwtable
define dso_local i32 @rb_random_int32(i64 noundef %0) local_unnamed_addr #0 {
  %2 = alloca i32, align 4
  %3 = tail call fastcc ptr @try_get_rnd(i64 noundef %0)
  %.not = icmp eq ptr %3, null
  br i1 %.not, label %4, label %7

4:                                                ; preds = %1
  call void @llvm.lifetime.start.p0(i64 4, ptr nonnull %2) #23
  %5 = call fastcc i64 @obj_random_bytes(i64 noundef %0, ptr noundef nonnull %2, i64 noundef 4)
  %6 = load i32, ptr %2, align 4, !tbaa !22
  call void @llvm.lifetime.end.p0(i64 4, ptr nonnull %2) #23
  br label %23

7:                                                ; preds = %1
  %8 = load ptr, ptr @default_rand_key, align 8, !tbaa !7
  %9 = tail call ptr @rb_ractor_local_storage_ptr(ptr noundef %8) #23
  %10 = icmp eq ptr %9, null
  br i1 %10, label %11, label %default_rand.exit.i

11:                                               ; preds = %7
  %12 = tail call noalias nonnull dereferenceable(2520) ptr @ruby_xcalloc(i64 noundef 1, i64 noundef 2520) #24
  %13 = load ptr, ptr @default_rand_key, align 8, !tbaa !7
  tail call void @rb_ractor_local_storage_ptr_set(ptr noundef %13, ptr noundef nonnull %12) #23
  br label %default_rand.exit.i

default_rand.exit.i:                              ; preds = %11, %7
  %.0.i.i = phi ptr [ %12, %11 ], [ %9, %7 ]
  %14 = icmp eq ptr %3, %.0.i.i
  br i1 %14, label %try_rand_if.exit, label %15

15:                                               ; preds = %default_rand.exit.i
  %16 = inttoptr i64 %0 to ptr
  %17 = getelementptr inbounds nuw i8, ptr %16, i64 16
  %18 = load ptr, ptr %17, align 8, !tbaa !31
  %19 = getelementptr inbounds nuw i8, ptr %18, i64 56
  %20 = load ptr, ptr %19, align 8, !tbaa !35
  br label %try_rand_if.exit

try_rand_if.exit:                                 ; preds = %default_rand.exit.i, %15
  %.0.i = phi ptr [ %20, %15 ], [ @random_mt_if, %default_rand.exit.i ]
  %21 = getelementptr i8, ptr %.0.i, i64 32
  %.val = load ptr, ptr %21, align 8, !tbaa !39
  %22 = tail call i32 %.val(ptr noundef nonnull %3) #23
  br label %23

23:                                               ; preds = %try_rand_if.exit, %4
  %.0 = phi i32 [ %22, %try_rand_if.exit ], [ %6, %4 ]
  ret i32 %.0
}